target datalayout = "e-m:e-p270:32:32-p271:32:32-p272:64:64-i64:64-i128:128-f80:128-n8:16:32:64-S128"
target triple = "x86_64-pc-linux-gnu"

%struct.listIter = type { ptr, i32 }
%struct.aofManifest = type { ptr, ptr, ptr, i64, i64, i32 }
%struct.list = type { ptr, ptr, ptr, ptr, ptr, i64 }
%struct.aofInfo = type { ptr, i64, i32, i64, i64 }
%struct.listNode = type { ptr, ptr, ptr }

@to_timestamp = internal global i64 0, align 8
@.str.42 = private unnamed_addr constant [16 x i8] c"%s %s is valid\0A\00", align 1
@.str.43 = private unnamed_addr constant [16 x i8] c"%s %s is empty\0A\00", align 1
@.str.44 = private unnamed_addr constant [48 x i8] c"Successfully truncated AOF %s to timestamp %ld\0A\00", align 1
@.str.45 = private unnamed_addr constant [31 x i8] c"Successfully truncated AOF %s\0A\00", align 1
@.str.46 = private unnamed_addr constant [31 x i8] c"Start checking Multi Part AOF\0A\00", align 1
@.str.47 = private unnamed_addr constant [38 x i8] c"Start to check BASE AOF (%s format).\0A\00", align 1
@.str.48 = private unnamed_addr constant [4 x i8] c"RDB\00", align 1
@.str.49 = private unnamed_addr constant [5 x i8] c"RESP\00", align 1
@.str.50 = private unnamed_addr constant [9 x i8] c"BASE AOF\00", align 1
@.str.51 = private unnamed_addr constant [28 x i8] c"Start to check INCR files.\0A\00", align 1
@.str.52 = private unnamed_addr constant [9 x i8] c"INCR AOF\00", align 1
@.str.53 = private unnamed_addr constant [38 x i8] c"All AOF files and manifest are valid\0A\00", align 1

; Function Attrs: nounwind uwtable
define dso_local void @printAofStyle(i32 noundef %0, ptr noundef %1, ptr noundef %2) #0 {
  %4 = alloca i32, align 4
  %5 = alloca ptr, align 8
  %6 = alloca ptr, align 8
  store i32 %0, ptr %4, align 4, !tbaa !23
  store ptr %1, ptr %5, align 8, !tbaa !5
  store ptr %2, ptr %6, align 8, !tbaa !5
  %7 = load i32, ptr %4, align 4, !tbaa !23
  %8 = icmp eq i32 %7, 0
  br i1 %8, label %9, label %13

9:                                                ; preds = %3
  %10 = load ptr, ptr %6, align 8, !tbaa !5
  %11 = load ptr, ptr %5, align 8, !tbaa !5
  %12 = call i32 (ptr, ...) @printf(ptr noundef @.str.42, ptr noundef %10, ptr noundef %11)
  br label %36

13:                                               ; preds = %3
  %14 = load i32, ptr %4, align 4, !tbaa !23
  %15 = icmp eq i32 %14, 1
  br i1 %15, label %16, label %20

16:                                               ; preds = %13
  %17 = load ptr, ptr %6, align 8, !tbaa !5
  %18 = load ptr, ptr %5, align 8, !tbaa !5
  %19 = call i32 (ptr, ...) @printf(ptr noundef @.str.43, ptr noundef %17, ptr noundef %18)
  br label %35

20:                                               ; preds = %13
  %21 = load i32, ptr %4, align 4, !tbaa !23
  %22 = icmp eq i32 %21, 3
  br i1 %22, label %23, label %27

23:                                               ; preds = %20
  %24 = load ptr, ptr %5, align 8, !tbaa !5
  %25 = load i64, ptr @to_timestamp, align 8, !tbaa !11
  %26 = call i32 (ptr, ...) @printf(ptr noundef @.str.44, ptr noundef %24, i64 noundef %25)
  br label %34

27:                                               ; preds = %20
  %28 = load i32, ptr %4, align 4, !tbaa !23
  %29 = icmp eq i32 %28, 2
  br i1 %29, label %30, label %33

30:                                               ; preds = %27
  %31 = load ptr, ptr %5, align 8, !tbaa !5
  %32 = call i32 (ptr, ...) @printf(ptr noundef @.str.45, ptr noundef %31)
  br label %33

33:                                               ; preds = %30, %27
  br label %34

34:                                               ; preds = %33, %23
  br label %35

35:                                               ; preds = %34, %16
  br label %36

36:                                               ; preds = %35, %9
  ret void
}

; Function Attrs: nounwind uwtable
define dso_local void @checkMultiPartAof(ptr noundef %0, ptr noundef %1, i32 noundef %2) #0 {
  %4 = alloca ptr, align 8
  %5 = alloca ptr, align 8
  %6 = alloca i32, align 4
  %7 = alloca i32, align 4
  %8 = alloca i32, align 4
  %9 = alloca i32, align 4
  %10 = alloca i32, align 4
  %11 = alloca ptr, align 8
  %12 = alloca ptr, align 8
  %13 = alloca ptr, align 8
  %14 = alloca i32, align 4
  %15 = alloca ptr, align 8
  %16 = alloca %struct.listIter, align 8
  %17 = alloca ptr, align 8
  %18 = alloca ptr, align 8
  %19 = alloca ptr, align 8
  store ptr %0, ptr %4, align 8, !tbaa !5
  store ptr %1, ptr %5, align 8, !tbaa !5
  store i32 %2, ptr %6, align 4, !tbaa !23
  call void @llvm.lifetime.start.p0(i64 4, ptr %7) #10
  store i32 0, ptr %7, align 4, !tbaa !23
  call void @llvm.lifetime.start.p0(i64 4, ptr %8) #10
  store i32 0, ptr %8, align 4, !tbaa !23
  call void @llvm.lifetime.start.p0(i64 4, ptr %9) #10
  call void @llvm.lifetime.start.p0(i64 4, ptr %10) #10
  %20 = call i32 (ptr, ...) @printf(ptr noundef @.str.46)
  call void @llvm.lifetime.start.p0(i64 8, ptr %11) #10
  %21 = load ptr, ptr %5, align 8, !tbaa !5
  %22 = call ptr @aofLoadManifestFromFile(ptr noundef %21)
  store ptr %22, ptr %11, align 8, !tbaa !30
  %23 = load ptr, ptr %11, align 8, !tbaa !30
  %24 = getelementptr inbounds nuw %struct.aofManifest, ptr %23, i32 0, i32 0
  %25 = load ptr, ptr %24, align 8, !tbaa !31
  %26 = icmp ne ptr %25, null
  br i1 %26, label %27, label %30

27:                                               ; preds = %3
  %28 = load i32, ptr %7, align 4, !tbaa !23
  %29 = add nsw i32 %28, 1
  store i32 %29, ptr %7, align 4, !tbaa !23
  br label %30

30:                                               ; preds = %27, %3
  %31 = load ptr, ptr %11, align 8, !tbaa !30
  %32 = getelementptr inbounds nuw %struct.aofManifest, ptr %31, i32 0, i32 1
  %33 = load ptr, ptr %32, align 8, !tbaa !34
  %34 = icmp ne ptr %33, null
  br i1 %34, label %35, label %45

35:                                               ; preds = %30
  %36 = load ptr, ptr %11, align 8, !tbaa !30
  %37 = getelementptr inbounds nuw %struct.aofManifest, ptr %36, i32 0, i32 1
  %38 = load ptr, ptr %37, align 8, !tbaa !34
  %39 = getelementptr inbounds nuw %struct.list, ptr %38, i32 0, i32 5
  %40 = load i64, ptr %39, align 8, !tbaa !35
  %41 = load i32, ptr %7, align 4, !tbaa !23
  %42 = sext i32 %41 to i64
  %43 = add i64 %42, %40
  %44 = trunc i64 %43 to i32
  store i32 %44, ptr %7, align 4, !tbaa !23
  br label %45

45:                                               ; preds = %35, %30
  %46 = load ptr, ptr %11, align 8, !tbaa !30
  %47 = getelementptr inbounds nuw %struct.aofManifest, ptr %46, i32 0, i32 0
  %48 = load ptr, ptr %47, align 8, !tbaa !31
  %49 = icmp ne ptr %48, null
  br i1 %49, label %50, label %79

50:                                               ; preds = %45
  call void @llvm.lifetime.start.p0(i64 8, ptr %12) #10
  %51 = load ptr, ptr %11, align 8, !tbaa !30
  %52 = getelementptr inbounds nuw %struct.aofManifest, ptr %51, i32 0, i32 0
  %53 = load ptr, ptr %52, align 8, !tbaa !31
  %54 = getelementptr inbounds nuw %struct.aofInfo, ptr %53, i32 0, i32 0
  %55 = load ptr, ptr %54, align 8, !tbaa !38
  store ptr %55, ptr %12, align 8, !tbaa !5
  call void @llvm.lifetime.start.p0(i64 8, ptr %13) #10
  %56 = load ptr, ptr %4, align 8, !tbaa !5
  %57 = load ptr, ptr %12, align 8, !tbaa !5
  %58 = call ptr @makePath(ptr noundef %56, ptr noundef %57)
  store ptr %58, ptr %13, align 8, !tbaa !5
  %59 = load i32, ptr %8, align 4, !tbaa !23
  %60 = add nsw i32 %59, 1
  store i32 %60, ptr %8, align 4, !tbaa !23
  %61 = load i32, ptr %7, align 4, !tbaa !23
  %62 = icmp eq i32 %60, %61
  %63 = zext i1 %62 to i32
  store i32 %63, ptr %9, align 4, !tbaa !23
  call void @llvm.lifetime.start.p0(i64 4, ptr %14) #10
  %64 = load ptr, ptr %13, align 8, !tbaa !5
  %65 = call i32 @fileIsRDB(ptr noundef %64)
  store i32 %65, ptr %14, align 4, !tbaa !23
  %66 = load i32, ptr %14, align 4, !tbaa !23
  %67 = icmp ne i32 %66, 0
  %68 = select i1 %67, ptr @.str.48, ptr @.str.49
  %69 = call i32 (ptr, ...) @printf(ptr noundef @.str.47, ptr noundef %68)
  %70 = load ptr, ptr %12, align 8, !tbaa !5
  %71 = load ptr, ptr %13, align 8, !tbaa !5
  %72 = load i32, ptr %9, align 4, !tbaa !23
  %73 = load i32, ptr %6, align 4, !tbaa !23
  %74 = load i32, ptr %14, align 4, !tbaa !23
  %75 = call i32 @checkSingleAof(ptr noundef %70, ptr noundef %71, i32 noundef %72, i32 noundef %73, i32 noundef %74)
  store i32 %75, ptr %10, align 4, !tbaa !23
  %76 = load i32, ptr %10, align 4, !tbaa !23
  %77 = load ptr, ptr %12, align 8, !tbaa !5
  call void @printAofStyle(i32 noundef %76, ptr noundef %77, ptr noundef @.str.50)
  %78 = load ptr, ptr %13, align 8, !tbaa !5
  call void @sdsfree(ptr noundef %78)
  call void @llvm.lifetime.end.p0(i64 4, ptr %14) #10
  call void @llvm.lifetime.end.p0(i64 8, ptr %13) #10
  call void @llvm.lifetime.end.p0(i64 8, ptr %12) #10
  br label %79

79:                                               ; preds = %50, %45
  %80 = load ptr, ptr %11, align 8, !tbaa !30
  %81 = getelementptr inbounds nuw %struct.aofManifest, ptr %80, i32 0, i32 1
  %82 = load ptr, ptr %81, align 8, !tbaa !34
  %83 = getelementptr inbounds nuw %struct.list, ptr %82, i32 0, i32 5
  %84 = load i64, ptr %83, align 8, !tbaa !35
  %85 = icmp ne i64 %84, 0
  br i1 %85, label %86, label %118

86:                                               ; preds = %79
  call void @llvm.lifetime.start.p0(i64 8, ptr %15) #10
  call void @llvm.lifetime.start.p0(i64 16, ptr %16) #10
  %87 = call i32 (ptr, ...) @printf(ptr noundef @.str.51)
  %88 = load ptr, ptr %11, align 8, !tbaa !30
  %89 = getelementptr inbounds nuw %struct.aofManifest, ptr %88, i32 0, i32 1
  %90 = load ptr, ptr %89, align 8, !tbaa !34
  call void @listRewind(ptr noundef %90, ptr noundef %16)
  br label %91

91:                                               ; preds = %94, %86
  %92 = call ptr @listNext(ptr noundef %16)
  store ptr %92, ptr %15, align 8, !tbaa !40
  %93 = icmp ne ptr %92, null
  br i1 %93, label %94, label %117

94:                                               ; preds = %91
  call void @llvm.lifetime.start.p0(i64 8, ptr %17) #10
  %95 = load ptr, ptr %15, align 8, !tbaa !40
  %96 = getelementptr inbounds nuw %struct.listNode, ptr %95, i32 0, i32 2
  %97 = load ptr, ptr %96, align 8, !tbaa !41
  store ptr %97, ptr %17, align 8, !tbaa !30
  call void @llvm.lifetime.start.p0(i64 8, ptr %18) #10
  %98 = load ptr, ptr %17, align 8, !tbaa !30
  %99 = getelementptr inbounds nuw %struct.aofInfo, ptr %98, i32 0, i32 0
  %100 = load ptr, ptr %99, align 8, !tbaa !38
  store ptr %100, ptr %18, align 8, !tbaa !5
  call void @llvm.lifetime.start.p0(i64 8, ptr %19) #10
  %101 = load ptr, ptr %4, align 8, !tbaa !5
  %102 = load ptr, ptr %18, align 8, !tbaa !5
  %103 = call ptr @makePath(ptr noundef %101, ptr noundef %102)
  store ptr %103, ptr %19, align 8, !tbaa !5
  %104 = load i32, ptr %8, align 4, !tbaa !23
  %105 = add nsw i32 %104, 1
  store i32 %105, ptr %8, align 4, !tbaa !23
  %106 = load i32, ptr %7, align 4, !tbaa !23
  %107 = icmp eq i32 %105, %106
  %108 = zext i1 %107 to i32
  store i32 %108, ptr %9, align 4, !tbaa !23
  %109 = load ptr, ptr %18, align 8, !tbaa !5
  %110 = load ptr, ptr %19, align 8, !tbaa !5
  %111 = load i32, ptr %9, align 4, !tbaa !23
  %112 = load i32, ptr %6, align 4, !tbaa !23
  %113 = call i32 @checkSingleAof(ptr noundef %109, ptr noundef %110, i32 noundef %111, i32 noundef %112, i32 noundef 0)
  store i32 %113, ptr %10, align 4, !tbaa !23
  %114 = load i32, ptr %10, align 4, !tbaa !23
  %115 = load ptr, ptr %18, align 8, !tbaa !5
  call void @printAofStyle(i32 noundef %114, ptr noundef %115, ptr noundef @.str.52)
  %116 = load ptr, ptr %19, align 8, !tbaa !5
  call void @sdsfree(ptr noundef %116)
  call void @llvm.lifetime.end.p0(i64 8, ptr %19) #10
  call void @llvm.lifetime.end.p0(i64 8, ptr %18) #10
  call void @llvm.lifetime.end.p0(i64 8, ptr %17) #10
  br label %91, !llvm.loop !43

117:                                              ; preds = %91
  call void @llvm.lifetime.end.p0(i64 16, ptr %16) #10
  call void @llvm.lifetime.end.p0(i64 8, ptr %15) #10
  br label %118

118:                                              ; preds = %117, %79
  %119 = load ptr, ptr %11, align 8, !tbaa !30
  call void @aofManifestFree(ptr noundef %119)
  %120 = call i32 (ptr, ...) @printf(ptr noundef @.str.53)
  call void @llvm.lifetime.end.p0(i64 8, ptr %11) #10
  call void @llvm.lifetime.end.p0(i64 4, ptr %10) #10
  call void @llvm.lifetime.end.p0(i64 4, ptr %9) #10
  call void @llvm.lifetime.end.p0(i64 4, ptr %8) #10
  call void @llvm.lifetime.end.p0(i64 4, ptr %7) #10
  ret void
}