; Function Attrs: nounwind uwtable
define dso_local void @checkMultiPartAof(ptr noundef %0, ptr noundef %1, i32 noundef %2) local_unnamed_addr #4 {
  %4 = alloca %struct.listIter, align 8
  %puts = tail call i32 @puts(ptr nonnull dereferenceable(1) @str.5)
  %5 = tail call ptr @aofLoadManifestFromFile(ptr noundef %1) #16
  %6 = load ptr, ptr %5, align 8, !tbaa !24
  %.not = icmp ne ptr %6, null
  %spec.select = zext i1 %.not to i32
  %7 = getelementptr inbounds nuw i8, ptr %5, i64 8
  %8 = load ptr, ptr %7, align 8, !tbaa !27
  %.not42 = icmp eq ptr %8, null
  br i1 %.not42, label %14, label %9

9:                                                ; preds = %3
  %10 = getelementptr inbounds nuw i8, ptr %8, i64 40
  %11 = load i64, ptr %10, align 8, !tbaa !28
  %12 = trunc i64 %11 to i32
  %13 = add i32 %12, %spec.select
  br label %14

14:                                               ; preds = %9, %3
  %.1 = phi i32 [ %13, %9 ], [ %spec.select, %3 ]
  br i1 %.not, label %15, label %33

15:                                               ; preds = %14
  %16 = load ptr, ptr %6, align 8, !tbaa !31
  %17 = tail call ptr @makePath(ptr noundef %0, ptr noundef %16) #16
  %18 = icmp eq i32 %.1, 1
  %19 = zext i1 %18 to i32
  %20 = tail call i32 @fileIsRDB(ptr noundef %17)
  %.not44 = icmp eq i32 %20, 0
  %21 = select i1 %.not44, ptr @.str.49, ptr @.str.48
  %22 = tail call i32 (ptr, ...) @printf(ptr noundef nonnull dereferenceable(1) @.str.47, ptr noundef nonnull %21)
  %23 = tail call i32 @checkSingleAof(ptr noundef %16, ptr noundef %17, i32 noundef %19, i32 noundef %2, i32 noundef %20)
  switch i32 %23, label %default.unreachable53 [
    i32 0, label %24
    i32 1, label %26
    i32 3, label %28
    i32 2, label %31
  ]

24:                                               ; preds = %15
  %25 = tail call i32 (ptr, ...) @printf(ptr noundef nonnull dereferenceable(1) @.str.42, ptr noundef nonnull @.str.50, ptr noundef %16)
  br label %printAofStyle.exit

26:                                               ; preds = %15
  %27 = tail call i32 (ptr, ...) @printf(ptr noundef nonnull dereferenceable(1) @.str.43, ptr noundef nonnull @.str.50, ptr noundef %16)
  br label %printAofStyle.exit

28:                                               ; preds = %15
  %29 = load i64, ptr @to_timestamp, align 8, !tbaa !8
  %30 = tail call i32 (ptr, ...) @printf(ptr noundef nonnull dereferenceable(1) @.str.44, ptr noundef %16, i64 noundef %29)
  br label %printAofStyle.exit

31:                                               ; preds = %15
  %32 = tail call i32 (ptr, ...) @printf(ptr noundef nonnull dereferenceable(1) @.str.45, ptr noundef %16)
  br label %printAofStyle.exit

default.unreachable53:                            ; preds = %.lr.ph, %15
  unreachable

printAofStyle.exit:                               ; preds = %24, %26, %28, %31
  tail call void @sdsfree(ptr noundef %17) #16
  %.pre = load ptr, ptr %7, align 8, !tbaa !27
  br label %33

33:                                               ; preds = %printAofStyle.exit, %14
  %34 = phi ptr [ %.pre, %printAofStyle.exit ], [ %8, %14 ]
  %.037 = phi i32 [ 1, %printAofStyle.exit ], [ 0, %14 ]
  %35 = getelementptr inbounds nuw i8, ptr %34, i64 40
  %36 = load i64, ptr %35, align 8, !tbaa !28
  %.not45 = icmp eq i64 %36, 0
  br i1 %.not45, label %59, label %37

37:                                               ; preds = %33
  call void @llvm.lifetime.start.p0(i64 16, ptr nonnull %4) #16
  %puts46 = tail call i32 @puts(ptr nonnull dereferenceable(1) @str.6)
  %38 = load ptr, ptr %7, align 8, !tbaa !27
  call void @listRewind(ptr noundef %38, ptr noundef nonnull %4) #16
  %39 = call ptr @listNext(ptr noundef nonnull %4) #16
  %.not4751 = icmp eq ptr %39, null
  br i1 %.not4751, label %._crit_edge, label %.lr.ph

.lr.ph:                                           ; preds = %37, %printAofStyle.exit49
  %40 = phi ptr [ %58, %printAofStyle.exit49 ], [ %39, %37 ]
  %.13852 = phi i32 [ %45, %printAofStyle.exit49 ], [ %.037, %37 ]
  %41 = getelementptr inbounds nuw i8, ptr %40, i64 16
  %42 = load ptr, ptr %41, align 8, !tbaa !33
  %43 = load ptr, ptr %42, align 8, !tbaa !31
  %44 = call ptr @makePath(ptr noundef %0, ptr noundef %43) #16
  %45 = add nuw nsw i32 %.13852, 1
  %46 = icmp eq i32 %45, %.1
  %47 = zext i1 %46 to i32
  %48 = call i32 @checkSingleAof(ptr noundef %43, ptr noundef %44, i32 noundef %47, i32 noundef %2, i32 noundef 0)
  switch i32 %48, label %default.unreachable53 [
    i32 0, label %49
    i32 1, label %51
    i32 3, label %53
    i32 2, label %56
  ]

49:                                               ; preds = %.lr.ph
  %50 = call i32 (ptr, ...) @printf(ptr noundef nonnull dereferenceable(1) @.str.42, ptr noundef nonnull @.str.52, ptr noundef %43)
  br label %printAofStyle.exit49

51:                                               ; preds = %.lr.ph
  %52 = call i32 (ptr, ...) @printf(ptr noundef nonnull dereferenceable(1) @.str.43, ptr noundef nonnull @.str.52, ptr noundef %43)
  br label %printAofStyle.exit49

53:                                               ; preds = %.lr.ph
  %54 = load i64, ptr @to_timestamp, align 8, !tbaa !8
  %55 = call i32 (ptr, ...) @printf(ptr noundef nonnull dereferenceable(1) @.str.44, ptr noundef %43, i64 noundef %54)
  br label %printAofStyle.exit49

56:                                               ; preds = %.lr.ph
  %57 = call i32 (ptr, ...) @printf(ptr noundef nonnull dereferenceable(1) @.str.45, ptr noundef %43)
  br label %printAofStyle.exit49

printAofStyle.exit49:                             ; preds = %49, %51, %53, %56
  call void @sdsfree(ptr noundef %44) #16
  %58 = call ptr @listNext(ptr noundef nonnull %4) #16
  %.not47 = icmp eq ptr %58, null
  br i1 %.not47, label %._crit_edge, label %.lr.ph, !llvm.loop !35

._crit_edge:                                      ; preds = %printAofStyle.exit49, %37
  call void @llvm.lifetime.end.p0(i64 16, ptr nonnull %4) #16
  br label %59

59:                                               ; preds = %._crit_edge, %33
  call void @aofManifestFree(ptr noundef nonnull %5) #16
  %puts48 = call i32 @puts(ptr nonnull dereferenceable(1) @str.7)
  ret void
}